target datalayout = "e-m:e-p270:32:32-p271:32:32-p272:64:64-i64:64-i128:128-f80:128-n8:16:32:64-S128"
target triple = "x86_64-pc-linux-gnu"

@.str.45 = private unnamed_addr constant [16 x i8] c"/proc/self/fd/1\00", align 1
@.str.46 = private unnamed_addr constant [16 x i8] c"/proc/self/fd/2\00", align 1
@_ZN3fLU18FLAGS_max_log_sizeE = external global i32, align 4

; Function Attrs: mustprogress nounwind uwtable
define internal noundef i32 @_ZN6googleL10MaxLogSizeEv() #2 {
  %1 = load i32, ptr @_ZN3fLU18FLAGS_max_log_sizeE, align 4, !tbaa !11
  %2 = icmp ugt i32 %1, 0
  br i1 %2, label %3, label %8

3:                                                ; preds = %0
  %4 = load i32, ptr @_ZN3fLU18FLAGS_max_log_sizeE, align 4, !tbaa !11
  %5 = icmp ult i32 %4, 4096
  br i1 %5, label %6, label %8

6:                                                ; preds = %3
  %7 = load i32, ptr @_ZN3fLU18FLAGS_max_log_sizeE, align 4, !tbaa !11
  br label %9

8:                                                ; preds = %3, %0
  br label %9

9:                                                ; preds = %8, %6
  %10 = phi i32 [ %7, %6 ], [ 1, %8 ]
  ret i32 %10
}

; Function Attrs: mustprogress uwtable
define void @_ZN6google20TruncateStdoutStderrEv() #0 {
  %1 = alloca i64, align 8
  %2 = alloca i64, align 8
  call void @llvm.lifetime.start.p0(i64 8, ptr %1) #5
  %3 = call noundef i32 @_ZN6googleL10MaxLogSizeEv()
  %4 = shl i32 %3, 20
  %5 = zext i32 %4 to i64
  store i64 %5, ptr %1, align 8, !tbaa !13
  call void @llvm.lifetime.start.p0(i64 8, ptr %2) #5
  store i64 1048576, ptr %2, align 8, !tbaa !13
  %6 = load i64, ptr %1, align 8, !tbaa !13
  %7 = load i64, ptr %2, align 8, !tbaa !13
  call void @_ZN6google15TruncateLogFileEPKcmm(ptr noundef @.str.45, i64 noundef %6, i64 noundef %7)
  %8 = load i64, ptr %1, align 8, !tbaa !13
  %9 = load i64, ptr %2, align 8, !tbaa !13
  call void @_ZN6google15TruncateLogFileEPKcmm(ptr noundef @.str.46, i64 noundef %8, i64 noundef %9)
  call void @llvm.lifetime.end.p0(i64 8, ptr %2) #5
  call void @llvm.lifetime.end.p0(i64 8, ptr %1) #5
  ret void
}