; Function Attrs: mustprogress uwtable
define void @_ZN6google20TruncateStdoutStderrEv() local_unnamed_addr #0 {
  %1 = load i32, ptr @_ZN3fLU18FLAGS_max_log_sizeE, align 4, !tbaa !97
  %2 = add i32 %1, -1
  %or.cond.i = icmp ult i32 %2, 4095
  %3 = shl i32 %1, 20
  %4 = select i1 %or.cond.i, i32 %3, i32 1048576
  %5 = zext i32 %4 to i64
  tail call void @_ZN6google15TruncateLogFileEPKcmm(ptr noundef nonnull @.str.45, i64 noundef %5, i64 noundef 1048576)
  tail call void @_ZN6google15TruncateLogFileEPKcmm(ptr noundef nonnull @.str.46, i64 noundef %5, i64 noundef 1048576)
  ret void
}